target datalayout = "e-m:e-p270:32:32-p271:32:32-p272:64:64-i64:64-i128:128-f80:128-n8:16:32:64-S128"
target triple = "x86_64-pc-linux-gnu"

%struct.MVB = type <{ ptr, i32, [4 x i8] }>

; Function Attrs: mustprogress nounwind uwtable
define internal noundef i32 @_ZZ35test_submodule_multiple_inheritanceRN8pybind117module_EENK3MVE7get_e_bEv(ptr noundef nonnull align 8 dereferenceable(12) %0) #5 align 2 {
  %2 = alloca ptr, align 8
  store ptr %0, ptr %2, align 8, !tbaa !276
  %3 = load ptr, ptr %2, align 8
  %4 = load ptr, ptr %3, align 8, !tbaa !246
  %5 = getelementptr i8, ptr %4, i64 -40
  %6 = load i64, ptr %5, align 8
  %7 = getelementptr inbounds i8, ptr %3, i64 %6
  %8 = getelementptr inbounds nuw %struct.MVB, ptr %7, i32 0, i32 1
  %9 = load i32, ptr %8, align 8, !tbaa !236
  ret i32 %9
}